; Function Attrs: mustprogress uwtable
define internal fastcc void @_ZN14core_hashtableIN7obj_mapI4sort6vectorIN12_GLOBAL__N_127get_implied_equalities_impl7term_idELb1EjEE13obj_map_entryE8obj_hashINS7_8key_dataEE10default_eqISA_EE12delete_tableEv(ptr nocapture noundef nonnull align 8 dereferenceable(20) %this) unnamed_addr #3 align 2 personality ptr @__gxx_personality_v0 {
entry:
  %0 = load ptr, ptr %this, align 8
  %m_capacity = getelementptr inbounds i8, ptr %this, i64 8
  %1 = load i32, ptr %m_capacity, align 8
  %cmp.i = icmp eq ptr %0, null
  br i1 %cmp.i, label %_Z12dealloc_vectIN7obj_mapI4sort6vectorIN12_GLOBAL__N_127get_implied_equalities_impl7term_idELb1EjEE13obj_map_entryEEvPT_j.exit, label %for.cond.preheader.i

for.cond.preheader.i:                             ; preds = %entry
  %cmp15.not.i = icmp eq i32 %1, 0
  br i1 %cmp15.not.i, label %for.end.i, label %for.body.i

for.body.i:                                       ; preds = %for.cond.preheader.i, %_ZN7obj_mapI4sort6vectorIN12_GLOBAL__N_127get_implied_equalities_impl7term_idELb1EjEE13obj_map_entryD2Ev.exit.i
  %i.07.i = phi i32 [ %inc.i, %_ZN7obj_mapI4sort6vectorIN12_GLOBAL__N_127get_implied_equalities_impl7term_idELb1EjEE13obj_map_entryD2Ev.exit.i ], [ 0, %for.cond.preheader.i ]
  %curr.06.i = phi ptr [ %incdec.ptr.i, %_ZN7obj_mapI4sort6vectorIN12_GLOBAL__N_127get_implied_equalities_impl7term_idELb1EjEE13obj_map_entryD2Ev.exit.i ], [ %0, %for.cond.preheader.i ]
  %m_value.i.i.i = getelementptr inbounds i8, ptr %curr.06.i, i64 8
  %2 = load ptr, ptr %m_value.i.i.i, align 8
  %tobool.not.i.i.i.i.i = icmp eq ptr %2, null
  br i1 %tobool.not.i.i.i.i.i, label %_ZN7obj_mapI4sort6vectorIN12_GLOBAL__N_127get_implied_equalities_impl7term_idELb1EjEE13obj_map_entryD2Ev.exit.i, label %_ZNK6vectorIN12_GLOBAL__N_127get_implied_equalities_impl7term_idELb1EjE4sizeEv.exit.i.i.i.i.i.i

_ZNK6vectorIN12_GLOBAL__N_127get_implied_equalities_impl7term_idELb1EjE4sizeEv.exit.i.i.i.i.i.i: ; preds = %for.body.i
  %arrayidx.i.i.i.i.i.i.i = getelementptr inbounds i8, ptr %2, i64 -4
  %3 = load i32, ptr %arrayidx.i.i.i.i.i.i.i, align 4
  %cmp.not6.i.i.i.i.i.i.i.i.i = icmp eq i32 %3, 0
  br i1 %cmp.not6.i.i.i.i.i.i.i.i.i, label %_ZN6vectorIN12_GLOBAL__N_127get_implied_equalities_impl7term_idELb1EjE16destroy_elementsEv.exit.i.i.i.i.i, label %for.body.i.i.i.i.i.i.i.i.i

for.body.i.i.i.i.i.i.i.i.i:                       ; preds = %_ZNK6vectorIN12_GLOBAL__N_127get_implied_equalities_impl7term_idELb1EjE4sizeEv.exit.i.i.i.i.i.i, %_ZSt8_DestroyIN12_GLOBAL__N_127get_implied_equalities_impl7term_idEEvPT_.exit.i.i.i.i.i.i.i.i.i
  %__count.addr.08.i.i.i.i.i.i.i.i.i = phi i32 [ %dec.i.i.i.i.i.i.i.i.i, %_ZSt8_DestroyIN12_GLOBAL__N_127get_implied_equalities_impl7term_idEEvPT_.exit.i.i.i.i.i.i.i.i.i ], [ %3, %_ZNK6vectorIN12_GLOBAL__N_127get_implied_equalities_impl7term_idELb1EjE4sizeEv.exit.i.i.i.i.i.i ]
  %__first.addr.07.i.i.i.i.i.i.i.i.i = phi ptr [ %incdec.ptr.i.i.i.i.i.i.i.i.i, %_ZSt8_DestroyIN12_GLOBAL__N_127get_implied_equalities_impl7term_idEEvPT_.exit.i.i.i.i.i.i.i.i.i ], [ %2, %_ZNK6vectorIN12_GLOBAL__N_127get_implied_equalities_impl7term_idELb1EjE4sizeEv.exit.i.i.i.i.i.i ]
  %__first.addr.0.val.i.i.i.i.i.i.i.i.i = load ptr, ptr %__first.addr.07.i.i.i.i.i.i.i.i.i, align 8
  %4 = getelementptr i8, ptr %__first.addr.07.i.i.i.i.i.i.i.i.i, i64 8
  %__first.addr.0.val4.i.i.i.i.i.i.i.i.i = load ptr, ptr %4, align 8
  %tobool.not.i.i.i.i.i.i.i.i.i.i.i.i.i = icmp eq ptr %__first.addr.0.val.i.i.i.i.i.i.i.i.i, null
  br i1 %tobool.not.i.i.i.i.i.i.i.i.i.i.i.i.i, label %_ZSt8_DestroyIN12_GLOBAL__N_127get_implied_equalities_impl7term_idEEvPT_.exit.i.i.i.i.i.i.i.i.i, label %if.then.i.i.i.i.i.i.i.i.i.i.i.i.i.i

if.then.i.i.i.i.i.i.i.i.i.i.i.i.i.i:              ; preds = %for.body.i.i.i.i.i.i.i.i.i
  %m_ref_count.i.i.i.i.i.i.i.i.i.i.i.i.i.i.i = getelementptr inbounds i8, ptr %__first.addr.0.val.i.i.i.i.i.i.i.i.i, i64 8
  %5 = load i32, ptr %m_ref_count.i.i.i.i.i.i.i.i.i.i.i.i.i.i.i, align 4
  %dec.i.i.i.i.i.i.i.i.i.i.i.i.i.i.i = add i32 %5, -1
  store i32 %dec.i.i.i.i.i.i.i.i.i.i.i.i.i.i.i, ptr %m_ref_count.i.i.i.i.i.i.i.i.i.i.i.i.i.i.i, align 4
  %cmp.i.i.i.i.i.i.i.i.i.i.i.i.i.i = icmp eq i32 %dec.i.i.i.i.i.i.i.i.i.i.i.i.i.i.i, 0
  br i1 %cmp.i.i.i.i.i.i.i.i.i.i.i.i.i.i, label %if.then2.i.i.i.i.i.i.i.i.i.i.i.i.i.i, label %_ZSt8_DestroyIN12_GLOBAL__N_127get_implied_equalities_impl7term_idEEvPT_.exit.i.i.i.i.i.i.i.i.i

if.then2.i.i.i.i.i.i.i.i.i.i.i.i.i.i:             ; preds = %if.then.i.i.i.i.i.i.i.i.i.i.i.i.i.i
  invoke void @_ZN11ast_manager11delete_nodeEP3ast(ptr noundef nonnull align 8 dereferenceable(976) %__first.addr.0.val4.i.i.i.i.i.i.i.i.i, ptr noundef nonnull %__first.addr.0.val.i.i.i.i.i.i.i.i.i)
          to label %_ZSt8_DestroyIN12_GLOBAL__N_127get_implied_equalities_impl7term_idEEvPT_.exit.i.i.i.i.i.i.i.i.i unwind label %terminate.lpad.i.i.i.i.i.i.i.i.i.i.i.i

terminate.lpad.i.i.i.i.i.i.i.i.i.i.i.i:           ; preds = %if.then2.i.i.i.i.i.i.i.i.i.i.i.i.i.i
  %6 = landingpad { ptr, i32 }
          catch ptr null
  %7 = extractvalue { ptr, i32 } %6, 0
  tail call void @__clang_call_terminate(ptr %7) #16
  unreachable

_ZSt8_DestroyIN12_GLOBAL__N_127get_implied_equalities_impl7term_idEEvPT_.exit.i.i.i.i.i.i.i.i.i: ; preds = %if.then2.i.i.i.i.i.i.i.i.i.i.i.i.i.i, %if.then.i.i.i.i.i.i.i.i.i.i.i.i.i.i, %for.body.i.i.i.i.i.i.i.i.i
  %incdec.ptr.i.i.i.i.i.i.i.i.i = getelementptr inbounds i8, ptr %__first.addr.07.i.i.i.i.i.i.i.i.i, i64 24
  %dec.i.i.i.i.i.i.i.i.i = add i32 %__count.addr.08.i.i.i.i.i.i.i.i.i, -1
  %cmp.not.i.i.i.i.i.i.i.i.i = icmp eq i32 %dec.i.i.i.i.i.i.i.i.i, 0
  br i1 %cmp.not.i.i.i.i.i.i.i.i.i, label %_ZN6vectorIN12_GLOBAL__N_127get_implied_equalities_impl7term_idELb1EjE16destroy_elementsEv.exit.loopexit.i.i.i.i.i, label %for.body.i.i.i.i.i.i.i.i.i, !llvm.loop !9

_ZN6vectorIN12_GLOBAL__N_127get_implied_equalities_impl7term_idELb1EjE16destroy_elementsEv.exit.loopexit.i.i.i.i.i: ; preds = %_ZSt8_DestroyIN12_GLOBAL__N_127get_implied_equalities_impl7term_idEEvPT_.exit.i.i.i.i.i.i.i.i.i
  %this.val1.pre.i.i.i.i.i = load ptr, ptr %m_value.i.i.i, align 8
  br label %_ZN6vectorIN12_GLOBAL__N_127get_implied_equalities_impl7term_idELb1EjE16destroy_elementsEv.exit.i.i.i.i.i

_ZN6vectorIN12_GLOBAL__N_127get_implied_equalities_impl7term_idELb1EjE16destroy_elementsEv.exit.i.i.i.i.i: ; preds = %_ZN6vectorIN12_GLOBAL__N_127get_implied_equalities_impl7term_idELb1EjE16destroy_elementsEv.exit.loopexit.i.i.i.i.i, %_ZNK6vectorIN12_GLOBAL__N_127get_implied_equalities_impl7term_idELb1EjE4sizeEv.exit.i.i.i.i.i.i
  %this.val1.i.i.i.i.i = phi ptr [ %this.val1.pre.i.i.i.i.i, %_ZN6vectorIN12_GLOBAL__N_127get_implied_equalities_impl7term_idELb1EjE16destroy_elementsEv.exit.loopexit.i.i.i.i.i ], [ %2, %_ZNK6vectorIN12_GLOBAL__N_127get_implied_equalities_impl7term_idELb1EjE4sizeEv.exit.i.i.i.i.i.i ]
  %add.ptr.i.i.i.i.i.i = getelementptr inbounds i8, ptr %this.val1.i.i.i.i.i, i64 -8
  invoke void @_ZN6memory10deallocateEPv(ptr noundef nonnull %add.ptr.i.i.i.i.i.i)
          to label %_ZN7obj_mapI4sort6vectorIN12_GLOBAL__N_127get_implied_equalities_impl7term_idELb1EjEE13obj_map_entryD2Ev.exit.i unwind label %terminate.lpad.i.i.i.i

terminate.lpad.i.i.i.i:                           ; preds = %_ZN6vectorIN12_GLOBAL__N_127get_implied_equalities_impl7term_idELb1EjE16destroy_elementsEv.exit.i.i.i.i.i
  %8 = landingpad { ptr, i32 }
          catch ptr null
  %9 = extractvalue { ptr, i32 } %8, 0
  tail call void @__clang_call_terminate(ptr %9) #16
  unreachable

_ZN7obj_mapI4sort6vectorIN12_GLOBAL__N_127get_implied_equalities_impl7term_idELb1EjEE13obj_map_entryD2Ev.exit.i: ; preds = %_ZN6vectorIN12_GLOBAL__N_127get_implied_equalities_impl7term_idELb1EjE16destroy_elementsEv.exit.i.i.i.i.i, %for.body.i
  %inc.i = add nuw i32 %i.07.i, 1
  %incdec.ptr.i = getelementptr inbounds i8, ptr %curr.06.i, i64 16
  %exitcond.not.i = icmp eq i32 %inc.i, %1
  br i1 %exitcond.not.i, label %for.end.i, label %for.body.i, !llvm.loop !19

for.end.i:                                        ; preds = %_ZN7obj_mapI4sort6vectorIN12_GLOBAL__N_127get_implied_equalities_impl7term_idELb1EjEE13obj_map_entryD2Ev.exit.i, %for.cond.preheader.i
  tail call void @_ZN6memory10deallocateEPv(ptr noundef nonnull %0)
  br label %_Z12dealloc_vectIN7obj_mapI4sort6vectorIN12_GLOBAL__N_127get_implied_equalities_impl7term_idELb1EjEE13obj_map_entryEEvPT_j.exit

_Z12dealloc_vectIN7obj_mapI4sort6vectorIN12_GLOBAL__N_127get_implied_equalities_impl7term_idELb1EjEE13obj_map_entryEEvPT_j.exit: ; preds = %entry, %for.end.i
  store ptr null, ptr %this, align 8
  ret void
}